target datalayout = "e-m:e-p270:32:32-p271:32:32-p272:64:64-i64:64-i128:128-f80:128-n8:16:32:64-S128"
target triple = "x86_64-pc-linux-gnu"

%struct._ether = type { [8 x i8], [64 x i8], [64 x i8] }

@g_ascii_table = external constant ptr, align 8

; Function Attrs: nounwind null_pointer_is_valid sspstrong uwtable
define internal zeroext i1 @parse_ether_address(ptr noundef %0, ptr noundef %1, ptr noundef %2, i1 noundef zeroext %3) #0 {
  %5 = alloca i1, align 1
  %6 = alloca ptr, align 8
  %7 = alloca ptr, align 8
  %8 = alloca ptr, align 8
  %9 = alloca i8, align 1
  %10 = alloca i32, align 4
  %11 = alloca i64, align 8
  %12 = alloca ptr, align 8
  %13 = alloca i8, align 1
  %14 = alloca i32, align 4
  store ptr %0, ptr %6, align 8
  store ptr %1, ptr %7, align 8
  store ptr %2, ptr %8, align 8
  %15 = zext i1 %3 to i8
  store i8 %15, ptr %9, align 1
  call void @llvm.lifetime.start.p0(i64 4, ptr %10) #16
  call void @llvm.lifetime.start.p0(i64 8, ptr %11) #16
  call void @llvm.lifetime.start.p0(i64 8, ptr %12) #16
  call void @llvm.lifetime.start.p0(i64 1, ptr %13) #16
  store i8 0, ptr %13, align 1
  store i32 0, ptr %10, align 4
  br label %16

16:                                               ; preds = %213, %4
  %17 = load i32, ptr %10, align 4
  %18 = icmp slt i32 %17, 8
  br i1 %18, label %19, label %216

19:                                               ; preds = %16
  %20 = load ptr, ptr @g_ascii_table, align 8
  %21 = load ptr, ptr %6, align 8
  %22 = load i8, ptr %21, align 1
  %23 = zext i8 %22 to i64
  %24 = getelementptr i16, ptr %20, i64 %23
  %25 = load i16, ptr %24, align 2
  %26 = zext i16 %25 to i32
  %27 = and i32 %26, 1024
  %28 = icmp ne i32 %27, 0
  br i1 %28, label %30, label %29

29:                                               ; preds = %19
  store i1 false, ptr %5, align 1
  store i32 1, ptr %14, align 4
  br label %217

30:                                               ; preds = %19
  %31 = load ptr, ptr %6, align 8
  %32 = call i64 @strtoul(ptr noundef %31, ptr noundef %12, i32 noundef 16) #16
  store i64 %32, ptr %11, align 8
  %33 = load ptr, ptr %12, align 8
  %34 = load ptr, ptr %6, align 8
  %35 = icmp eq ptr %33, %34
  br i1 %35, label %36, label %37

36:                                               ; preds = %30
  store i1 false, ptr %5, align 1
  store i32 1, ptr %14, align 4
  br label %217

37:                                               ; preds = %30
  %38 = load i64, ptr %11, align 8
  %39 = icmp ugt i64 %38, 255
  br i1 %39, label %40, label %41

40:                                               ; preds = %37
  store i1 false, ptr %5, align 1
  store i32 1, ptr %14, align 4
  br label %217

41:                                               ; preds = %37
  %42 = load i64, ptr %11, align 8
  %43 = trunc i64 %42 to i8
  %44 = load ptr, ptr %7, align 8
  %45 = getelementptr inbounds nuw %struct._ether, ptr %44, i32 0, i32 0
  %46 = load i32, ptr %10, align 4
  %47 = sext i32 %46 to i64
  %48 = getelementptr [8 x i8], ptr %45, i64 0, i64 %47
  store i8 %43, ptr %48, align 1
  %49 = load ptr, ptr %12, align 8
  store ptr %49, ptr %6, align 8
  %50 = load ptr, ptr %6, align 8
  %51 = load i8, ptr %50, align 1
  %52 = sext i8 %51 to i32
  %53 = icmp eq i32 %52, 47
  br i1 %53, label %54, label %144

54:                                               ; preds = %41
  %55 = load i8, ptr %9, align 1, !range !8, !noundef !9
  %56 = trunc i8 %55 to i1
  br i1 %56, label %58, label %57

57:                                               ; preds = %54
  store i1 false, ptr %5, align 1
  store i32 1, ptr %14, align 4
  br label %217

58:                                               ; preds = %54
  %59 = load ptr, ptr %6, align 8
  %60 = getelementptr i8, ptr %59, i32 1
  store ptr %60, ptr %6, align 8
  %61 = load ptr, ptr @g_ascii_table, align 8
  %62 = load ptr, ptr %6, align 8
  %63 = load i8, ptr %62, align 1
  %64 = zext i8 %63 to i64
  %65 = getelementptr i16, ptr %61, i64 %64
  %66 = load i16, ptr %65, align 2
  %67 = zext i16 %66 to i32
  %68 = and i32 %67, 8
  %69 = icmp ne i32 %68, 0
  br i1 %69, label %71, label %70

70:                                               ; preds = %58
  store i1 false, ptr %5, align 1
  store i32 1, ptr %14, align 4
  br label %217

71:                                               ; preds = %58
  %72 = load ptr, ptr %6, align 8
  %73 = call i64 @strtoul(ptr noundef %72, ptr noundef %12, i32 noundef 10) #16
  store i64 %73, ptr %11, align 8
  %74 = load ptr, ptr %12, align 8
  %75 = load ptr, ptr %6, align 8
  %76 = icmp eq ptr %74, %75
  br i1 %76, label %77, label %78

77:                                               ; preds = %71
  store i1 false, ptr %5, align 1
  store i32 1, ptr %14, align 4
  br label %217

78:                                               ; preds = %71
  %79 = load ptr, ptr %12, align 8
  store ptr %79, ptr %6, align 8
  %80 = load ptr, ptr %6, align 8
  %81 = load i8, ptr %80, align 1
  %82 = sext i8 %81 to i32
  %83 = icmp ne i32 %82, 0
  br i1 %83, label %84, label %95

84:                                               ; preds = %78
  %85 = load ptr, ptr @g_ascii_table, align 8
  %86 = load ptr, ptr %6, align 8
  %87 = load i8, ptr %86, align 1
  %88 = zext i8 %87 to i64
  %89 = getelementptr i16, ptr %85, i64 %88
  %90 = load i16, ptr %89, align 2
  %91 = zext i16 %90 to i32
  %92 = and i32 %91, 256
  %93 = icmp ne i32 %92, 0
  br i1 %93, label %95, label %94

94:                                               ; preds = %84
  store i1 false, ptr %5, align 1
  store i32 1, ptr %14, align 4
  br label %217

95:                                               ; preds = %84, %78
  %96 = load i64, ptr %11, align 8
  %97 = icmp eq i64 %96, 0
  br i1 %97, label %101, label %98

98:                                               ; preds = %95
  %99 = load i64, ptr %11, align 8
  %100 = icmp uge i64 %99, 48
  br i1 %100, label %101, label %102

101:                                              ; preds = %98, %95
  store i1 false, ptr %5, align 1
  store i32 1, ptr %14, align 4
  br label %217

102:                                              ; preds = %98
  %103 = load i64, ptr %11, align 8
  %104 = trunc i64 %103 to i32
  %105 = load ptr, ptr %8, align 8
  store i32 %104, ptr %105, align 4
  store i32 0, ptr %10, align 4
  br label %106

106:                                              ; preds = %110, %102
  %107 = load i64, ptr %11, align 8
  %108 = icmp uge i64 %107, 8
  br i1 %108, label %109, label %115

109:                                              ; preds = %106
  br label %110

110:                                              ; preds = %109
  %111 = load i32, ptr %10, align 4
  %112 = add i32 %111, 1
  store i32 %112, ptr %10, align 4
  %113 = load i64, ptr %11, align 8
  %114 = sub i64 %113, 8
  store i64 %114, ptr %11, align 8
  br label %106, !llvm.loop !35

115:                                              ; preds = %106
  %116 = load i64, ptr %11, align 8
  %117 = sub i64 8, %116
  %118 = trunc i64 %117 to i32
  %119 = shl i32 255, %118
  %120 = load ptr, ptr %7, align 8
  %121 = getelementptr inbounds nuw %struct._ether, ptr %120, i32 0, i32 0
  %122 = load i32, ptr %10, align 4
  %123 = sext i32 %122 to i64
  %124 = getelementptr [8 x i8], ptr %121, i64 0, i64 %123
  %125 = load i8, ptr %124, align 1
  %126 = zext i8 %125 to i32
  %127 = and i32 %126, %119
  %128 = trunc i32 %127 to i8
  store i8 %128, ptr %124, align 1
  %129 = load i32, ptr %10, align 4
  %130 = add i32 %129, 1
  store i32 %130, ptr %10, align 4
  br label %131

131:                                              ; preds = %140, %115
  %132 = load i32, ptr %10, align 4
  %133 = icmp slt i32 %132, 6
  br i1 %133, label %134, label %143

134:                                              ; preds = %131
  %135 = load ptr, ptr %7, align 8
  %136 = getelementptr inbounds nuw %struct._ether, ptr %135, i32 0, i32 0
  %137 = load i32, ptr %10, align 4
  %138 = sext i32 %137 to i64
  %139 = getelementptr [8 x i8], ptr %136, i64 0, i64 %138
  store i8 0, ptr %139, align 1
  br label %140

140:                                              ; preds = %134
  %141 = load i32, ptr %10, align 4
  %142 = add i32 %141, 1
  store i32 %142, ptr %10, align 4
  br label %131, !llvm.loop !36

143:                                              ; preds = %131
  store i1 true, ptr %5, align 1
  store i32 1, ptr %14, align 4
  br label %217

144:                                              ; preds = %41
  %145 = load ptr, ptr %6, align 8
  %146 = load i8, ptr %145, align 1
  %147 = sext i8 %146 to i32
  %148 = icmp eq i32 %147, 0
  br i1 %148, label %149, label %177

149:                                              ; preds = %144
  %150 = load i32, ptr %10, align 4
  %151 = icmp eq i32 %150, 2
  br i1 %151, label %152, label %158

152:                                              ; preds = %149
  %153 = load i8, ptr %9, align 1, !range !8, !noundef !9
  %154 = trunc i8 %153 to i1
  br i1 %154, label %156, label %155

155:                                              ; preds = %152
  store i1 false, ptr %5, align 1
  store i32 1, ptr %14, align 4
  br label %217

156:                                              ; preds = %152
  %157 = load ptr, ptr %8, align 8
  store i32 0, ptr %157, align 4
  store i1 true, ptr %5, align 1
  store i32 1, ptr %14, align 4
  br label %217

158:                                              ; preds = %149
  %159 = load i32, ptr %10, align 4
  %160 = icmp eq i32 %159, 5
  br i1 %160, label %161, label %167

161:                                              ; preds = %158
  %162 = load ptr, ptr %8, align 8
  %163 = icmp ne ptr %162, null
  br i1 %163, label %164, label %166

164:                                              ; preds = %161
  %165 = load ptr, ptr %8, align 8
  store i32 48, ptr %165, align 4
  br label %166

166:                                              ; preds = %164, %161
  store i1 true, ptr %5, align 1
  store i32 1, ptr %14, align 4
  br label %217

167:                                              ; preds = %158
  %168 = load i32, ptr %10, align 4
  %169 = icmp eq i32 %168, 7
  br i1 %169, label %170, label %176

170:                                              ; preds = %167
  %171 = load ptr, ptr %8, align 8
  %172 = icmp ne ptr %171, null
  br i1 %172, label %173, label %175

173:                                              ; preds = %170
  %174 = load ptr, ptr %8, align 8
  store i32 64, ptr %174, align 4
  br label %175

175:                                              ; preds = %173, %170
  store i1 true, ptr %5, align 1
  store i32 1, ptr %14, align 4
  br label %217

176:                                              ; preds = %167
  store i1 false, ptr %5, align 1
  store i32 1, ptr %14, align 4
  br label %217

177:                                              ; preds = %144
  %178 = load i8, ptr %13, align 1
  %179 = sext i8 %178 to i32
  %180 = icmp eq i32 %179, 0
  br i1 %180, label %181, label %200

181:                                              ; preds = %177
  %182 = load ptr, ptr %6, align 8
  %183 = load i8, ptr %182, align 1
  %184 = sext i8 %183 to i32
  %185 = icmp ne i32 %184, 58
  br i1 %185, label %186, label %197

186:                                              ; preds = %181
  %187 = load ptr, ptr %6, align 8
  %188 = load i8, ptr %187, align 1
  %189 = sext i8 %188 to i32
  %190 = icmp ne i32 %189, 45
  br i1 %190, label %191, label %197

191:                                              ; preds = %186
  %192 = load ptr, ptr %6, align 8
  %193 = load i8, ptr %192, align 1
  %194 = sext i8 %193 to i32
  %195 = icmp ne i32 %194, 46
  br i1 %195, label %196, label %197

196:                                              ; preds = %191
  store i1 false, ptr %5, align 1
  store i32 1, ptr %14, align 4
  br label %217

197:                                              ; preds = %191, %186, %181
  %198 = load ptr, ptr %6, align 8
  %199 = load i8, ptr %198, align 1
  store i8 %199, ptr %13, align 1
  br label %209

200:                                              ; preds = %177
  %201 = load ptr, ptr %6, align 8
  %202 = load i8, ptr %201, align 1
  %203 = sext i8 %202 to i32
  %204 = load i8, ptr %13, align 1
  %205 = sext i8 %204 to i32
  %206 = icmp ne i32 %203, %205
  br i1 %206, label %207, label %208

207:                                              ; preds = %200
  store i1 false, ptr %5, align 1
  store i32 1, ptr %14, align 4
  br label %217

208:                                              ; preds = %200
  br label %209

209:                                              ; preds = %208, %197
  br label %210

210:                                              ; preds = %209
  %211 = load ptr, ptr %6, align 8
  %212 = getelementptr i8, ptr %211, i32 1
  store ptr %212, ptr %6, align 8
  br label %213

213:                                              ; preds = %210
  %214 = load i32, ptr %10, align 4
  %215 = add i32 %214, 1
  store i32 %215, ptr %10, align 4
  br label %16, !llvm.loop !37

216:                                              ; preds = %16
  store i1 true, ptr %5, align 1
  store i32 1, ptr %14, align 4
  br label %217

217:                                              ; preds = %216, %207, %196, %176, %175, %166, %156, %155, %143, %101, %94, %77, %70, %57, %40, %36, %29
  call void @llvm.lifetime.end.p0(i64 1, ptr %13) #16
  call void @llvm.lifetime.end.p0(i64 8, ptr %12) #16
  call void @llvm.lifetime.end.p0(i64 8, ptr %11) #16
  call void @llvm.lifetime.end.p0(i64 4, ptr %10) #16
  %218 = load i1, ptr %5, align 1
  ret i1 %218
}