; Function Attrs: nofree nounwind null_pointer_is_valid sspstrong uwtable
define internal fastcc noundef zeroext i1 @parse_ether_address(ptr noundef %0, ptr noundef captures(none) %1, ptr noundef writeonly captures(address_is_null) %2, i1 noundef zeroext %3) unnamed_addr #16 {
  %5 = alloca ptr, align 8
  call void @llvm.lifetime.start.p0(i64 8, ptr nonnull %5) #24
  %6 = load ptr, ptr @g_ascii_table, align 8
  br label %7

7:                                                ; preds = %4, %74
  %indvars.iv = phi i64 [ 0, %4 ], [ %indvars.iv.next, %74 ]
  %.082 = phi i8 [ 0, %4 ], [ %.1, %74 ]
  %.05580 = phi ptr [ %0, %4 ], [ %75, %74 ]
  %8 = load i8, ptr %.05580, align 1
  %9 = zext i8 %8 to i64
  %10 = getelementptr i16, ptr %6, i64 %9
  %11 = load i16, ptr %10, align 2
  %12 = and i16 %11, 1024
  %.not = icmp eq i16 %12, 0
  br i1 %.not, label %.loopexit, label %13

13:                                               ; preds = %7
  %14 = call i64 @strtoul(ptr noundef %.05580, ptr noundef nonnull %5, i32 noundef 16) #24
  %15 = load ptr, ptr %5, align 8
  %16 = icmp eq ptr %15, %.05580
  %17 = icmp ugt i64 %14, 255
  %or.cond72 = select i1 %16, i1 true, i1 %17
  br i1 %or.cond72, label %.loopexit, label %18

18:                                               ; preds = %13
  %19 = trunc nuw i64 %14 to i8
  %20 = getelementptr [8 x i8], ptr %1, i64 0, i64 %indvars.iv
  store i8 %19, ptr %20, align 1
  %21 = load i8, ptr %15, align 1
  switch i8 %21, label %70 [
    i8 47, label %22
    i8 0, label %62
  ]

22:                                               ; preds = %18
  br i1 %3, label %23, label %.loopexit

23:                                               ; preds = %22
  %24 = getelementptr i8, ptr %15, i64 1
  %25 = load i8, ptr %24, align 1
  %26 = zext i8 %25 to i64
  %27 = getelementptr i16, ptr %6, i64 %26
  %28 = load i16, ptr %27, align 2
  %29 = and i16 %28, 8
  %.not69 = icmp eq i16 %29, 0
  br i1 %.not69, label %.loopexit, label %30

30:                                               ; preds = %23
  %31 = call i64 @strtoul(ptr noundef %24, ptr noundef nonnull %5, i32 noundef 10) #24
  %32 = load ptr, ptr %5, align 8
  %33 = icmp eq ptr %32, %24
  br i1 %33, label %.loopexit, label %34

34:                                               ; preds = %30
  %35 = load i8, ptr %32, align 1
  %.not70 = icmp eq i8 %35, 0
  br i1 %.not70, label %42, label %36

36:                                               ; preds = %34
  %37 = zext i8 %35 to i64
  %38 = getelementptr i16, ptr %6, i64 %37
  %39 = load i16, ptr %38, align 2
  %40 = and i16 %39, 256
  %.not71 = icmp eq i16 %40, 0
  %41 = add i64 %31, -48
  %or.cond = icmp ult i64 %41, -47
  %or.cond73 = select i1 %.not71, i1 true, i1 %or.cond
  br i1 %or.cond73, label %.loopexit, label %._crit_edge

42:                                               ; preds = %34
  %.old = add i64 %31, -48
  %or.cond.old = icmp ult i64 %.old, -47
  br i1 %or.cond.old, label %.loopexit, label %._crit_edge

._crit_edge:                                      ; preds = %36, %42
  %43 = trunc nuw nsw i64 %31 to i32
  store i32 %43, ptr %2, align 4
  %44 = icmp samesign ugt i64 %31, 7
  %45 = add i64 %31, 34359738360
  %46 = lshr i64 %45, 3
  %47 = trunc i64 %46 to i32
  %48 = add nuw nsw i32 %47, 1
  %.153.lcssa = select i1 %44, i32 %48, i32 0
  %49 = trunc i64 %31 to i16
  %50 = and i16 %49, 7
  %51 = sub nuw nsw i16 8, %50
  %52 = shl nuw i16 255, %51
  %53 = zext nneg i32 %.153.lcssa to i64
  %54 = getelementptr [8 x i8], ptr %1, i64 0, i64 %53
  %55 = load i8, ptr %54, align 1
  %56 = trunc i16 %52 to i8
  %57 = and i8 %55, %56
  store i8 %57, ptr %54, align 1
  %58 = icmp ult i32 %.153.lcssa, 5
  br i1 %58, label %.lr.ph89.preheader, label %.loopexit

.lr.ph89.preheader:                               ; preds = %._crit_edge
  %59 = zext nneg i32 %.153.lcssa to i64
  %60 = getelementptr i8, ptr %1, i64 %59
  %scevgep = getelementptr i8, ptr %60, i64 1
  %narrow = sub nuw nsw i32 5, %.153.lcssa
  %61 = zext nneg i32 %narrow to i64
  tail call void @llvm.memset.p0.i64(ptr noundef align 1 %scevgep, i8 0, i64 %61, i1 false)
  br label %.loopexit

62:                                               ; preds = %18
  %63 = trunc nuw nsw i64 %indvars.iv to i32
  switch i32 %63, label %.loopexit [
    i32 2, label %64
    i32 5, label %66
    i32 7, label %68
  ]

64:                                               ; preds = %62
  br i1 %3, label %65, label %.loopexit

65:                                               ; preds = %64
  store i32 0, ptr %2, align 4
  br label %.loopexit

66:                                               ; preds = %62
  %.not68 = icmp eq ptr %2, null
  br i1 %.not68, label %.loopexit, label %67

67:                                               ; preds = %66
  store i32 48, ptr %2, align 4
  br label %.loopexit

68:                                               ; preds = %62
  %.not67 = icmp eq ptr %2, null
  br i1 %.not67, label %.loopexit, label %69

69:                                               ; preds = %68
  store i32 64, ptr %2, align 4
  br label %.loopexit

70:                                               ; preds = %18
  %71 = icmp eq i8 %.082, 0
  br i1 %71, label %72, label %73

72:                                               ; preds = %70
  switch i8 %21, label %.loopexit [
    i8 58, label %74
    i8 45, label %74
    i8 46, label %74
  ]

73:                                               ; preds = %70
  %.not63 = icmp eq i8 %21, %.082
  br i1 %.not63, label %74, label %.loopexit

74:                                               ; preds = %72, %72, %72, %73
  %.1 = phi i8 [ %.082, %73 ], [ %21, %72 ], [ %21, %72 ], [ %21, %72 ]
  %75 = getelementptr i8, ptr %15, i64 1
  %indvars.iv.next = add nuw nsw i64 %indvars.iv, 1
  %exitcond.not = icmp eq i64 %indvars.iv.next, 8
  br i1 %exitcond.not, label %.loopexit, label %7, !llvm.loop !53

.loopexit:                                        ; preds = %74, %73, %72, %13, %7, %.lr.ph89.preheader, %._crit_edge, %62, %68, %69, %66, %67, %64, %42, %36, %30, %23, %22, %65
  %.054 = phi i1 [ true, %65 ], [ false, %22 ], [ false, %23 ], [ false, %30 ], [ false, %36 ], [ false, %42 ], [ false, %64 ], [ true, %67 ], [ true, %66 ], [ true, %69 ], [ true, %68 ], [ false, %62 ], [ true, %._crit_edge ], [ true, %.lr.ph89.preheader ], [ true, %74 ], [ false, %73 ], [ false, %72 ], [ false, %13 ], [ false, %7 ]
  call void @llvm.lifetime.end.p0(i64 8, ptr nonnull %5) #24
  ret i1 %.054
}